; Function Attrs: mustprogress uwtable
define hidden noundef zeroext i1 @_ZNK8facebook6hermes7tracing10SynthTrace24CreateHostFunctionRecordeqERKNS2_6RecordE(ptr noundef nonnull align 8 dereferenceable(32) %this, ptr noundef nonnull align 8 dereferenceable(16) %that) unnamed_addr #1 align 2 {
entry:
  %vtable.i.i = load ptr, ptr %this, align 8
  %vfn.i.i = getelementptr inbounds i8, ptr %vtable.i.i, i64 16
  %0 = load ptr, ptr %vfn.i.i, align 8
  %call.i.i = tail call noundef i32 %0(ptr noundef nonnull align 8 dereferenceable(16) %this)
  %vtable2.i.i = load ptr, ptr %that, align 8
  %vfn3.i.i = getelementptr inbounds i8, ptr %vtable2.i.i, i64 16
  %1 = load ptr, ptr %vfn3.i.i, align 8
  %call4.i.i = tail call noundef i32 %1(ptr noundef nonnull align 8 dereferenceable(16) %that)
  %cmp.i.i = icmp eq i32 %call.i.i, %call4.i.i
  br i1 %cmp.i.i, label %if.end.i, label %return

if.end.i:                                         ; preds = %entry
  %2 = tail call ptr @__dynamic_cast(ptr nonnull %that, ptr nonnull @_ZTIN8facebook6hermes7tracing10SynthTrace6RecordE, ptr nonnull @_ZTIN8facebook6hermes7tracing10SynthTrace18CreateObjectRecordE, i64 0) #23
  %3 = icmp eq ptr %2, null
  br i1 %3, label %dynamic_cast.bad_cast.i, label %_ZNK8facebook6hermes7tracing10SynthTrace18CreateObjectRecordeqERKNS2_6RecordE.exit

dynamic_cast.bad_cast.i:                          ; preds = %if.end.i
  tail call void @__cxa_bad_cast() #26
  unreachable

_ZNK8facebook6hermes7tracing10SynthTrace18CreateObjectRecordeqERKNS2_6RecordE.exit: ; preds = %if.end.i
  %objID_.i = getelementptr inbounds i8, ptr %this, i64 16
  %4 = load i64, ptr %objID_.i, align 8
  %objID_2.i = getelementptr inbounds i8, ptr %2, i64 16
  %5 = load i64, ptr %objID_2.i, align 8
  %cmp.i = icmp eq i64 %4, %5
  br i1 %cmp.i, label %if.end, label %return

if.end:                                           ; preds = %_ZNK8facebook6hermes7tracing10SynthTrace18CreateObjectRecordeqERKNS2_6RecordE.exit
  %6 = tail call ptr @__dynamic_cast(ptr nonnull %that, ptr nonnull @_ZTIN8facebook6hermes7tracing10SynthTrace6RecordE, ptr nonnull @_ZTIN8facebook6hermes7tracing10SynthTrace24CreateHostFunctionRecordE, i64 0) #23
  %7 = icmp eq ptr %6, null
  br i1 %7, label %dynamic_cast.bad_cast, label %dynamic_cast.end

dynamic_cast.bad_cast:                            ; preds = %if.end
  tail call void @__cxa_bad_cast() #26
  unreachable

dynamic_cast.end:                                 ; preds = %if.end
  %propNameID_ = getelementptr inbounds i8, ptr %this, i64 24
  %8 = load i32, ptr %propNameID_, align 8
  %propNameID_2 = getelementptr inbounds i8, ptr %6, i64 24
  %9 = load i32, ptr %propNameID_2, align 8
  %cmp = icmp eq i32 %8, %9
  br i1 %cmp, label %land.lhs.true, label %return

land.lhs.true:                                    ; preds = %dynamic_cast.end
  %paramCount_ = getelementptr inbounds i8, ptr %this, i64 28
  %10 = load i32, ptr %paramCount_, align 4
  %paramCount_3 = getelementptr inbounds i8, ptr %6, i64 28
  %11 = load i32, ptr %paramCount_3, align 4
  %cmp4 = icmp eq i32 %10, %11
  br label %return

return:                                           ; preds = %entry, %land.lhs.true, %dynamic_cast.end, %_ZNK8facebook6hermes7tracing10SynthTrace18CreateObjectRecordeqERKNS2_6RecordE.exit
  %retval.0 = phi i1 [ false, %_ZNK8facebook6hermes7tracing10SynthTrace18CreateObjectRecordeqERKNS2_6RecordE.exit ], [ false, %dynamic_cast.end ], [ %cmp4, %land.lhs.true ], [ false, %entry ]
  ret i1 %retval.0
}